target datalayout = "e-m:e-p270:32:32-p271:32:32-p272:64:64-i64:64-i128:128-f80:128-n8:16:32:64-S128"
target triple = "x86_64-pc-linux-gnu"

%struct.AVRational = type { i32, i32 }
%struct.AVChannelLayout = type { i32, i32, %union.anon.0, ptr }
%union.anon.0 = type { i64 }
%struct.CDXLVideoContext = type { ptr, i32, i32, i32, i32, ptr, i32, ptr, i32, ptr, i32 }
%struct.AVFrame = type { [8 x ptr], [8 x i32], ptr, i32, i32, i32, i32, i32, %struct.AVRational, i64, i64, %struct.AVRational, i32, ptr, i32, i32, [8 x ptr], ptr, i32, ptr, i32, i32, i32, i32, i32, i32, i32, i64, ptr, i32, ptr, ptr, i64, i64, i64, i64, ptr, %struct.AVChannelLayout, i64 }

; Function Attrs: alwaysinline nounwind willreturn memory(none) uwtable
define internal zeroext i16 @av_bswap16(i16 noundef zeroext %0) #3 {
  %2 = alloca i16, align 2
  store i16 %0, ptr %2, align 2, !tbaa !57
  %3 = load i16, ptr %2, align 2, !tbaa !57
  %4 = zext i16 %3 to i32
  %5 = ashr i32 %4, 8
  %6 = load i16, ptr %2, align 2, !tbaa !57
  %7 = zext i16 %6 to i32
  %8 = shl i32 %7, 8
  %9 = or i32 %5, %8
  %10 = trunc i32 %9 to i16
  store i16 %10, ptr %2, align 2, !tbaa !57
  %11 = load i16, ptr %2, align 2, !tbaa !57
  ret i16 %11
}

; Function Attrs: nounwind uwtable
define internal void @import_palette(ptr noundef %0, ptr noundef %1) #1 {
  %3 = alloca ptr, align 8
  %4 = alloca ptr, align 8
  %5 = alloca i32, align 4
  %6 = alloca i32, align 4
  %7 = alloca i32, align 4
  %8 = alloca i32, align 4
  %9 = alloca i32, align 4
  %10 = alloca i32, align 4
  %11 = alloca i32, align 4
  store ptr %0, ptr %3, align 8, !tbaa !29
  store ptr %1, ptr %4, align 8, !tbaa !36
  %12 = load ptr, ptr %3, align 8, !tbaa !29
  %13 = getelementptr inbounds nuw %struct.CDXLVideoContext, ptr %12, i32 0, i32 2
  %14 = load i32, ptr %13, align 4, !tbaa !45
  %15 = icmp eq i32 %14, 1
  br i1 %15, label %16, label %63

16:                                               ; preds = %2
  call void @llvm.lifetime.start.p0(i64 4, ptr %5) #10
  store i32 0, ptr %5, align 4, !tbaa !41
  br label %17

17:                                               ; preds = %59, %16
  %18 = load i32, ptr %5, align 4, !tbaa !41
  %19 = load ptr, ptr %3, align 8, !tbaa !29
  %20 = getelementptr inbounds nuw %struct.CDXLVideoContext, ptr %19, i32 0, i32 6
  %21 = load i32, ptr %20, align 8, !tbaa !48
  %22 = sdiv i32 %21, 2
  %23 = icmp slt i32 %18, %22
  br i1 %23, label %25, label %24

24:                                               ; preds = %17
  call void @llvm.lifetime.end.p0(i64 4, ptr %5) #10
  br label %62

25:                                               ; preds = %17
  call void @llvm.lifetime.start.p0(i64 4, ptr %6) #10
  %26 = load ptr, ptr %3, align 8, !tbaa !29
  %27 = getelementptr inbounds nuw %struct.CDXLVideoContext, ptr %26, i32 0, i32 5
  %28 = load ptr, ptr %27, align 8, !tbaa !49
  %29 = load i32, ptr %5, align 4, !tbaa !41
  %30 = mul nsw i32 %29, 2
  %31 = sext i32 %30 to i64
  %32 = getelementptr inbounds i8, ptr %28, i64 %31
  %33 = load i16, ptr %32, align 1, !tbaa !44
  %34 = call zeroext i16 @av_bswap16(i16 noundef zeroext %33) #11
  %35 = zext i16 %34 to i32
  store i32 %35, ptr %6, align 4, !tbaa !41
  call void @llvm.lifetime.start.p0(i64 4, ptr %7) #10
  %36 = load i32, ptr %6, align 4, !tbaa !41
  %37 = lshr i32 %36, 8
  %38 = and i32 %37, 15
  %39 = mul i32 %38, 17
  store i32 %39, ptr %7, align 4, !tbaa !41
  call void @llvm.lifetime.start.p0(i64 4, ptr %8) #10
  %40 = load i32, ptr %6, align 4, !tbaa !41
  %41 = lshr i32 %40, 4
  %42 = and i32 %41, 15
  %43 = mul i32 %42, 17
  store i32 %43, ptr %8, align 4, !tbaa !41
  call void @llvm.lifetime.start.p0(i64 4, ptr %9) #10
  %44 = load i32, ptr %6, align 4, !tbaa !41
  %45 = and i32 %44, 15
  %46 = mul i32 %45, 17
  store i32 %46, ptr %9, align 4, !tbaa !41
  %47 = load i32, ptr %7, align 4, !tbaa !41
  %48 = shl i32 %47, 16
  %49 = or i32 -16777216, %48
  %50 = load i32, ptr %8, align 4, !tbaa !41
  %51 = shl i32 %50, 8
  %52 = or i32 %49, %51
  %53 = load i32, ptr %9, align 4, !tbaa !41
  %54 = or i32 %52, %53
  %55 = load ptr, ptr %4, align 8, !tbaa !36
  %56 = load i32, ptr %5, align 4, !tbaa !41
  %57 = sext i32 %56 to i64
  %58 = getelementptr inbounds i32, ptr %55, i64 %57
  store i32 %54, ptr %58, align 1, !tbaa !44
  call void @llvm.lifetime.end.p0(i64 4, ptr %9) #10
  call void @llvm.lifetime.end.p0(i64 4, ptr %8) #10
  call void @llvm.lifetime.end.p0(i64 4, ptr %7) #10
  call void @llvm.lifetime.end.p0(i64 4, ptr %6) #10
  br label %59

59:                                               ; preds = %25
  %60 = load i32, ptr %5, align 4, !tbaa !41
  %61 = add nsw i32 %60, 1
  store i32 %61, ptr %5, align 4, !tbaa !41
  br label %17, !llvm.loop !64

62:                                               ; preds = %24
  br label %117

63:                                               ; preds = %2
  call void @llvm.lifetime.start.p0(i64 4, ptr %10) #10
  store i32 0, ptr %10, align 4, !tbaa !41
  br label %64

64:                                               ; preds = %113, %63
  %65 = load i32, ptr %10, align 4, !tbaa !41
  %66 = load ptr, ptr %3, align 8, !tbaa !29
  %67 = getelementptr inbounds nuw %struct.CDXLVideoContext, ptr %66, i32 0, i32 6
  %68 = load i32, ptr %67, align 8, !tbaa !48
  %69 = sdiv i32 %68, 3
  %70 = icmp slt i32 %65, %69
  br i1 %70, label %72, label %71

71:                                               ; preds = %64
  call void @llvm.lifetime.end.p0(i64 4, ptr %10) #10
  br label %116

72:                                               ; preds = %64
  call void @llvm.lifetime.start.p0(i64 4, ptr %11) #10
  %73 = load ptr, ptr %3, align 8, !tbaa !29
  %74 = getelementptr inbounds nuw %struct.CDXLVideoContext, ptr %73, i32 0, i32 5
  %75 = load ptr, ptr %74, align 8, !tbaa !49
  %76 = load i32, ptr %10, align 4, !tbaa !41
  %77 = mul nsw i32 %76, 3
  %78 = sext i32 %77 to i64
  %79 = getelementptr inbounds i8, ptr %75, i64 %78
  %80 = getelementptr inbounds i8, ptr %79, i64 0
  %81 = load i8, ptr %80, align 1, !tbaa !44
  %82 = zext i8 %81 to i32
  %83 = shl i32 %82, 16
  %84 = load ptr, ptr %3, align 8, !tbaa !29
  %85 = getelementptr inbounds nuw %struct.CDXLVideoContext, ptr %84, i32 0, i32 5
  %86 = load ptr, ptr %85, align 8, !tbaa !49
  %87 = load i32, ptr %10, align 4, !tbaa !41
  %88 = mul nsw i32 %87, 3
  %89 = sext i32 %88 to i64
  %90 = getelementptr inbounds i8, ptr %86, i64 %89
  %91 = getelementptr inbounds i8, ptr %90, i64 1
  %92 = load i8, ptr %91, align 1, !tbaa !44
  %93 = zext i8 %92 to i32
  %94 = shl i32 %93, 8
  %95 = or i32 %83, %94
  %96 = load ptr, ptr %3, align 8, !tbaa !29
  %97 = getelementptr inbounds nuw %struct.CDXLVideoContext, ptr %96, i32 0, i32 5
  %98 = load ptr, ptr %97, align 8, !tbaa !49
  %99 = load i32, ptr %10, align 4, !tbaa !41
  %100 = mul nsw i32 %99, 3
  %101 = sext i32 %100 to i64
  %102 = getelementptr inbounds i8, ptr %98, i64 %101
  %103 = getelementptr inbounds i8, ptr %102, i64 2
  %104 = load i8, ptr %103, align 1, !tbaa !44
  %105 = zext i8 %104 to i32
  %106 = or i32 %95, %105
  store i32 %106, ptr %11, align 4, !tbaa !41
  %107 = load i32, ptr %11, align 4, !tbaa !41
  %108 = or i32 -16777216, %107
  %109 = load ptr, ptr %4, align 8, !tbaa !36
  %110 = load i32, ptr %10, align 4, !tbaa !41
  %111 = sext i32 %110 to i64
  %112 = getelementptr inbounds i32, ptr %109, i64 %111
  store i32 %108, ptr %112, align 1, !tbaa !44
  call void @llvm.lifetime.end.p0(i64 4, ptr %11) #10
  br label %113

113:                                              ; preds = %72
  %114 = load i32, ptr %10, align 4, !tbaa !41
  %115 = add nsw i32 %114, 1
  store i32 %115, ptr %10, align 4, !tbaa !41
  br label %64, !llvm.loop !65

116:                                              ; preds = %71
  br label %117

117:                                              ; preds = %116, %62
  ret void
}

; Function Attrs: nounwind uwtable
define internal void @cdxl_decode_rgb(ptr noundef %0, ptr noundef %1) #1 {
  %3 = alloca ptr, align 8
  %4 = alloca ptr, align 8
  %5 = alloca ptr, align 8
  store ptr %0, ptr %3, align 8, !tbaa !29
  store ptr %1, ptr %4, align 8, !tbaa !34
  call void @llvm.lifetime.start.p0(i64 8, ptr %5) #10
  %6 = load ptr, ptr %4, align 8, !tbaa !34
  %7 = getelementptr inbounds nuw %struct.AVFrame, ptr %6, i32 0, i32 0
  %8 = getelementptr inbounds [8 x ptr], ptr %7, i64 0, i64 1
  %9 = load ptr, ptr %8, align 8, !tbaa !43
  store ptr %9, ptr %5, align 8, !tbaa !36
  %10 = load ptr, ptr %4, align 8, !tbaa !34
  %11 = getelementptr inbounds nuw %struct.AVFrame, ptr %10, i32 0, i32 0
  %12 = getelementptr inbounds [8 x ptr], ptr %11, i64 0, i64 1
  %13 = load ptr, ptr %12, align 8, !tbaa !43
  call void @llvm.memset.p0.i64(ptr align 1 %13, i8 0, i64 1024, i1 false)
  %14 = load ptr, ptr %3, align 8, !tbaa !29
  %15 = load ptr, ptr %5, align 8, !tbaa !36
  call void @import_palette(ptr noundef %14, ptr noundef %15)
  %16 = load ptr, ptr %3, align 8, !tbaa !29
  %17 = load ptr, ptr %4, align 8, !tbaa !34
  %18 = getelementptr inbounds nuw %struct.AVFrame, ptr %17, i32 0, i32 1
  %19 = getelementptr inbounds [8 x i32], ptr %18, i64 0, i64 0
  %20 = load i32, ptr %19, align 8, !tbaa !41
  %21 = sext i32 %20 to i64
  %22 = load ptr, ptr %4, align 8, !tbaa !34
  %23 = getelementptr inbounds nuw %struct.AVFrame, ptr %22, i32 0, i32 0
  %24 = getelementptr inbounds [8 x ptr], ptr %23, i64 0, i64 0
  %25 = load ptr, ptr %24, align 8, !tbaa !43
  call void @import_format(ptr noundef %16, i64 noundef %21, ptr noundef %25)
  call void @llvm.lifetime.end.p0(i64 8, ptr %5) #10
  ret void
}