; Function Attrs: nounwind uwtable
define internal fastcc void @cdxl_decode_rgb(ptr noundef readonly captures(none) %0, ptr noundef readonly captures(none) %1) unnamed_addr #1 {
  %3 = getelementptr inbounds nuw i8, ptr %1, i64 8
  %4 = load ptr, ptr %3, align 8, !tbaa !47
  tail call void @llvm.memset.p0.i64(ptr noundef nonnull align 1 dereferenceable(1024) %4, i8 0, i64 1024, i1 false)
  %5 = getelementptr inbounds nuw i8, ptr %0, i64 12
  %6 = load i32, ptr %5, align 4, !tbaa !35
  %7 = icmp eq i32 %6, 1
  %8 = getelementptr inbounds nuw i8, ptr %0, i64 32
  %9 = load i32, ptr %8, align 8, !tbaa !38
  br i1 %7, label %.preheader.i, label %.preheader26.i

.preheader26.i:                                   ; preds = %2
  %10 = icmp sgt i32 %9, 2
  br i1 %10, label %.lr.ph.i, label %import_palette.exit

.lr.ph.i:                                         ; preds = %.preheader26.i
  %11 = getelementptr inbounds nuw i8, ptr %0, i64 24
  br label %37

.preheader.i:                                     ; preds = %2
  %12 = icmp sgt i32 %9, 1
  br i1 %12, label %.lr.ph30.i, label %import_palette.exit

.lr.ph30.i:                                       ; preds = %.preheader.i
  %13 = getelementptr inbounds nuw i8, ptr %0, i64 24
  br label %14

14:                                               ; preds = %14, %.lr.ph30.i
  %indvars.iv33.i = phi i64 [ 0, %.lr.ph30.i ], [ %indvars.iv.next34.i, %14 ]
  %15 = load ptr, ptr %13, align 8, !tbaa !39
  %16 = shl nuw nsw i64 %indvars.iv33.i, 1
  %17 = getelementptr inbounds nuw i8, ptr %15, i64 %16
  %18 = load i16, ptr %17, align 1, !tbaa !34
  %19 = tail call i16 @llvm.bswap.i16(i16 %18)
  %20 = zext i16 %19 to i32
  %21 = lshr i32 %20, 8
  %22 = and i32 %21, 15
  %23 = lshr i32 %20, 4
  %24 = and i32 %23, 15
  %25 = and i32 %20, 15
  %26 = mul nuw nsw i32 %25, 17
  %27 = mul nuw nsw i32 %22, 1114112
  %28 = mul nuw nsw i32 %24, 4352
  %29 = or disjoint i32 %27, %28
  %30 = or disjoint i32 %29, %26
  %31 = or disjoint i32 %30, -16777216
  %32 = getelementptr inbounds nuw i32, ptr %4, i64 %indvars.iv33.i
  store i32 %31, ptr %32, align 1, !tbaa !34
  %indvars.iv.next34.i = add nuw nsw i64 %indvars.iv33.i, 1
  %33 = load i32, ptr %8, align 8, !tbaa !38
  %34 = sdiv i32 %33, 2
  %35 = sext i32 %34 to i64
  %36 = icmp slt i64 %indvars.iv.next34.i, %35
  br i1 %36, label %14, label %import_palette.exit, !llvm.loop !49

37:                                               ; preds = %37, %.lr.ph.i
  %indvars.iv.i = phi i64 [ 0, %.lr.ph.i ], [ %indvars.iv.next.i, %37 ]
  %38 = load ptr, ptr %11, align 8, !tbaa !39
  %39 = mul nuw nsw i64 %indvars.iv.i, 3
  %40 = getelementptr inbounds nuw i8, ptr %38, i64 %39
  %41 = load i8, ptr %40, align 1, !tbaa !34
  %42 = zext i8 %41 to i32
  %43 = shl nuw nsw i32 %42, 16
  %44 = getelementptr inbounds nuw i8, ptr %40, i64 1
  %45 = load i8, ptr %44, align 1, !tbaa !34
  %46 = zext i8 %45 to i32
  %47 = shl nuw nsw i32 %46, 8
  %48 = getelementptr inbounds nuw i8, ptr %40, i64 2
  %49 = load i8, ptr %48, align 1, !tbaa !34
  %50 = zext i8 %49 to i32
  %51 = or disjoint i32 %43, %47
  %52 = or disjoint i32 %51, %50
  %53 = or disjoint i32 %52, -16777216
  %54 = getelementptr inbounds nuw i32, ptr %4, i64 %indvars.iv.i
  store i32 %53, ptr %54, align 1, !tbaa !34
  %indvars.iv.next.i = add nuw nsw i64 %indvars.iv.i, 1
  %55 = load i32, ptr %8, align 8, !tbaa !38
  %56 = sdiv i32 %55, 3
  %57 = sext i32 %56 to i64
  %58 = icmp slt i64 %indvars.iv.next.i, %57
  br i1 %58, label %37, label %import_palette.exit, !llvm.loop !51

import_palette.exit:                              ; preds = %37, %14, %.preheader26.i, %.preheader.i
  %59 = getelementptr inbounds nuw i8, ptr %1, i64 64
  %60 = load i32, ptr %59, align 8, !tbaa !48
  %61 = sext i32 %60 to i64
  %62 = load ptr, ptr %1, align 8, !tbaa !47
  tail call fastcc void @import_format(ptr noundef nonnull %0, i64 noundef %61, ptr noundef %62)
  ret void
}